target datalayout = "e-m:e-p270:32:32-p271:32:32-p272:64:64-i64:64-i128:128-f80:128-n8:16:32:64-S128"
target triple = "x86_64-pc-linux-gnu"

; Function Attrs: nounwind uwtable
define internal double @omega(double noundef %0) #0 {
  %2 = alloca double, align 8
  store double %0, ptr %2, align 8, !tbaa !17
  %3 = load double, ptr %2, align 8, !tbaa !17
  %4 = fdiv double %3, 2.000000e+00
  %5 = call double @cos(double noundef %4) #7, !tbaa !4
  ret double %5
}

; Function Attrs: nounwind uwtable
define internal double @F(double noundef %0) #0 {
  %2 = alloca double, align 8
  store double %0, ptr %2, align 8, !tbaa !17
  %3 = load double, ptr %2, align 8, !tbaa !17
  %4 = fdiv double %3, 0x400921FB54442D18
  %5 = call double @sin(double noundef %4) #7, !tbaa !4
  %6 = fmul double 1.800000e-02, %5
  ret double %6
}

; Function Attrs: nounwind uwtable
define internal double @Hamiltonian(ptr noundef %0, double noundef %1) #0 {
  %3 = alloca ptr, align 8
  %4 = alloca double, align 8
  %5 = alloca double, align 8
  %6 = alloca ptr, align 8
  %7 = alloca double, align 8
  %8 = alloca double, align 8
  store ptr %0, ptr %3, align 8, !tbaa !13
  store double %1, ptr %4, align 8, !tbaa !17
  call void @llvm.lifetime.start.p0(i64 8, ptr %5) #7
  store double 0.000000e+00, ptr %5, align 8, !tbaa !17
  call void @llvm.lifetime.start.p0(i64 8, ptr %6) #7
  %9 = load ptr, ptr %3, align 8, !tbaa !13
  %10 = call ptr @N_VGetArrayPointer(ptr noundef %9)
  store ptr %10, ptr %6, align 8, !tbaa !15
  call void @llvm.lifetime.start.p0(i64 8, ptr %7) #7
  %11 = load ptr, ptr %6, align 8, !tbaa !15
  %12 = getelementptr inbounds double, ptr %11, i64 0
  %13 = load double, ptr %12, align 8, !tbaa !17
  store double %13, ptr %7, align 8, !tbaa !17
  call void @llvm.lifetime.start.p0(i64 8, ptr %8) #7
  %14 = load ptr, ptr %6, align 8, !tbaa !15
  %15 = getelementptr inbounds double, ptr %14, i64 1
  %16 = load double, ptr %15, align 8, !tbaa !17
  store double %16, ptr %8, align 8, !tbaa !17
  %17 = load double, ptr %7, align 8, !tbaa !17
  %18 = load double, ptr %7, align 8, !tbaa !17
  %19 = fmul double %17, %18
  %20 = load double, ptr %4, align 8, !tbaa !17
  %21 = call double @F(double noundef %20)
  %22 = fneg double %21
  %23 = call double @exp(double noundef %22) #7, !tbaa !4
  %24 = fmul double %19, %23
  %25 = fdiv double %24, 2.000000e+00
  %26 = load double, ptr %4, align 8, !tbaa !17
  %27 = call double @omega(double noundef %26)
  %28 = load double, ptr %4, align 8, !tbaa !17
  %29 = call double @omega(double noundef %28)
  %30 = fmul double %27, %29
  %31 = load double, ptr %8, align 8, !tbaa !17
  %32 = fmul double %30, %31
  %33 = load double, ptr %8, align 8, !tbaa !17
  %34 = fmul double %32, %33
  %35 = load double, ptr %4, align 8, !tbaa !17
  %36 = call double @F(double noundef %35)
  %37 = call double @exp(double noundef %36) #7, !tbaa !4
  %38 = fmul double %34, %37
  %39 = fdiv double %38, 2.000000e+00
  %40 = fadd double %25, %39
  store double %40, ptr %5, align 8, !tbaa !17
  %41 = load double, ptr %5, align 8, !tbaa !17
  call void @llvm.lifetime.end.p0(i64 8, ptr %8) #7
  call void @llvm.lifetime.end.p0(i64 8, ptr %7) #7
  call void @llvm.lifetime.end.p0(i64 8, ptr %6) #7
  call void @llvm.lifetime.end.p0(i64 8, ptr %5) #7
  ret double %41
}