; Function Attrs: nounwind uwtable
define internal fastcc double @Hamiltonian(ptr noundef %0, double noundef %1) unnamed_addr #0 {
  %3 = tail call ptr @N_VGetArrayPointer(ptr noundef %0) #10
  %4 = load double, ptr %3, align 8, !tbaa !13
  %5 = getelementptr inbounds nuw i8, ptr %3, i64 8
  %6 = load double, ptr %5, align 8, !tbaa !13
  %7 = fmul double %4, %4
  %8 = fdiv double %1, 0x400921FB54442D18
  %9 = tail call double @sin(double noundef %8) #10, !tbaa !16
  %10 = fmul double %9, -1.800000e-02
  %11 = tail call double @exp(double noundef %10) #10, !tbaa !16
  %12 = fmul double %7, %11
  %13 = fmul double %12, 5.000000e-01
  %14 = fmul double %1, 5.000000e-01
  %15 = tail call double @cos(double noundef %14) #10, !tbaa !16
  %16 = tail call double @cos(double noundef %14) #10, !tbaa !16
  %17 = fmul double %15, %16
  %18 = fmul double %6, %17
  %19 = fmul double %6, %18
  %20 = tail call double @sin(double noundef %8) #10, !tbaa !16
  %21 = fmul double %20, 1.800000e-02
  %22 = tail call double @exp(double noundef %21) #10, !tbaa !16
  %23 = fmul double %22, %19
  %24 = fmul double %23, 5.000000e-01
  %25 = fadd double %13, %24
  ret double %25
}